target datalayout = "e-m:e-p270:32:32-p271:32:32-p272:64:64-i64:64-i128:128-f80:128-n8:16:32:64-S128"
target triple = "x86_64-pc-linux-gnu"

%struct.quic_lcid_st = type { %struct.quic_conn_id_st, i64, ptr, i8 }
%struct.quic_conn_id_st = type { i8, [20 x i8] }

; Function Attrs: inlinehint nounwind uwtable
define internal i32 @ossl_quic_conn_id_eq(ptr noundef %0, ptr noundef %1) #3 {
  %3 = alloca i32, align 4
  %4 = alloca ptr, align 8
  %5 = alloca ptr, align 8
  store ptr %0, ptr %4, align 8, !tbaa !33
  store ptr %1, ptr %5, align 8, !tbaa !33
  %6 = load ptr, ptr %4, align 8, !tbaa !33
  %7 = getelementptr inbounds nuw %struct.quic_conn_id_st, ptr %6, i32 0, i32 0
  %8 = load i8, ptr %7, align 1, !tbaa !35
  %9 = zext i8 %8 to i32
  %10 = load ptr, ptr %5, align 8, !tbaa !33
  %11 = getelementptr inbounds nuw %struct.quic_conn_id_st, ptr %10, i32 0, i32 0
  %12 = load i8, ptr %11, align 1, !tbaa !35
  %13 = zext i8 %12 to i32
  %14 = icmp ne i32 %9, %13
  br i1 %14, label %21, label %15

15:                                               ; preds = %2
  %16 = load ptr, ptr %4, align 8, !tbaa !33
  %17 = getelementptr inbounds nuw %struct.quic_conn_id_st, ptr %16, i32 0, i32 0
  %18 = load i8, ptr %17, align 1, !tbaa !35
  %19 = zext i8 %18 to i32
  %20 = icmp sgt i32 %19, 20
  br i1 %20, label %21, label %22

21:                                               ; preds = %15, %2
  store i32 0, ptr %3, align 4
  br label %36

22:                                               ; preds = %15
  %23 = load ptr, ptr %4, align 8, !tbaa !33
  %24 = getelementptr inbounds nuw %struct.quic_conn_id_st, ptr %23, i32 0, i32 1
  %25 = getelementptr inbounds [20 x i8], ptr %24, i64 0, i64 0
  %26 = load ptr, ptr %5, align 8, !tbaa !33
  %27 = getelementptr inbounds nuw %struct.quic_conn_id_st, ptr %26, i32 0, i32 1
  %28 = getelementptr inbounds [20 x i8], ptr %27, i64 0, i64 0
  %29 = load ptr, ptr %4, align 8, !tbaa !33
  %30 = getelementptr inbounds nuw %struct.quic_conn_id_st, ptr %29, i32 0, i32 0
  %31 = load i8, ptr %30, align 1, !tbaa !35
  %32 = zext i8 %31 to i64
  %33 = call i32 @memcmp(ptr noundef %25, ptr noundef %28, i64 noundef %32) #8
  %34 = icmp eq i32 %33, 0
  %35 = zext i1 %34 to i32
  store i32 %35, ptr %3, align 4
  br label %36

36:                                               ; preds = %22, %21
  %37 = load i32, ptr %3, align 4
  ret i32 %37
}

; Function Attrs: nounwind uwtable
define internal i32 @lcid_comp(ptr noundef %0, ptr noundef %1) #0 {
  %3 = alloca ptr, align 8
  %4 = alloca ptr, align 8
  store ptr %0, ptr %3, align 8, !tbaa !20
  store ptr %1, ptr %4, align 8, !tbaa !20
  %5 = load ptr, ptr %3, align 8, !tbaa !20
  %6 = getelementptr inbounds nuw %struct.quic_lcid_st, ptr %5, i32 0, i32 0
  %7 = load ptr, ptr %4, align 8, !tbaa !20
  %8 = getelementptr inbounds nuw %struct.quic_lcid_st, ptr %7, i32 0, i32 0
  %9 = call i32 @ossl_quic_conn_id_eq(ptr noundef %6, ptr noundef %8)
  %10 = icmp ne i32 %9, 0
  %11 = xor i1 %10, true
  %12 = zext i1 %11 to i32
  ret i32 %12
}