; Function Attrs: mustprogress nofree nounwind willreturn memory(argmem: read) uwtable
define internal range(i32 0, 2) i32 @lcid_comp(ptr noundef readonly captures(none) %0, ptr noundef readonly captures(none) %1) #4 {
  %3 = load i8, ptr %0, align 1, !tbaa !23
  %4 = load i8, ptr %1, align 1, !tbaa !23
  %.not.i = icmp ne i8 %3, %4
  %5 = icmp ugt i8 %3, 20
  %or.cond.i = or i1 %5, %.not.i
  br i1 %or.cond.i, label %ossl_quic_conn_id_eq.exit, label %6

6:                                                ; preds = %2
  %7 = getelementptr inbounds nuw i8, ptr %0, i64 1
  %8 = getelementptr inbounds nuw i8, ptr %1, i64 1
  %9 = zext nneg i8 %3 to i64
  %bcmp.i = tail call i32 @bcmp(ptr nonnull readonly %7, ptr nonnull readonly %8, i64 %9)
  %10 = icmp ne i32 %bcmp.i, 0
  %11 = zext i1 %10 to i32
  br label %ossl_quic_conn_id_eq.exit

ossl_quic_conn_id_eq.exit:                        ; preds = %2, %6
  %.0.i = phi i32 [ %11, %6 ], [ 1, %2 ]
  ret i32 %.0.i
}